target datalayout = "e-m:e-p270:32:32-p271:32:32-p272:64:64-i64:64-i128:128-f80:128-n8:16:32:64-S128"
target triple = "x86_64-pc-linux-gnu"

%struct.fstWriterContext = type { ptr, ptr, ptr, ptr, ptr, ptr, ptr, i64, ptr, ptr, ptr, i32, ptr, i32, i32, i32, i8, i64, i64, i32, i32, i64, i64, i32, i32, i32, i64, i32, double, ptr, ptr, i32, i64, i8, i8, i8, i8, i8, i64, i64, i64, i64, i64, i32, ptr, i32, i8, ptr, ptr, ptr, ptr, i32 }

; Function Attrs: mustprogress nounwind uwtable
define void @fstWriterFlushContext(ptr noundef %0) #8 {
  %2 = alloca ptr, align 8
  %3 = alloca ptr, align 8
  store ptr %0, ptr %2, align 8, !tbaa !50
  call void @llvm.lifetime.start.p0(i64 8, ptr %3) #15
  %4 = load ptr, ptr %2, align 8, !tbaa !50
  store ptr %4, ptr %3, align 8, !tbaa !13
  %5 = load ptr, ptr %3, align 8, !tbaa !13
  %6 = icmp ne ptr %5, null
  br i1 %6, label %7, label %19

7:                                                ; preds = %1
  %8 = load ptr, ptr %3, align 8, !tbaa !13
  %9 = getelementptr inbounds nuw %struct.fstWriterContext, ptr %8, i32 0, i32 20
  %10 = load i32, ptr %9, align 4, !tbaa !51
  %11 = icmp ugt i32 %10, 1
  br i1 %11, label %12, label %18

12:                                               ; preds = %7
  %13 = load ptr, ptr %3, align 8, !tbaa !13
  %14 = getelementptr inbounds nuw %struct.fstWriterContext, ptr %13, i32 0, i32 34
  %15 = load i8, ptr %14, align 1
  %16 = and i8 %15, -33
  %17 = or i8 %16, 32
  store i8 %17, ptr %14, align 1
  br label %18

18:                                               ; preds = %12, %7
  br label %19

19:                                               ; preds = %18, %1
  call void @llvm.lifetime.end.p0(i64 8, ptr %3) #15
  ret void
}