; Function Attrs: mustprogress nofree norecurse nosync nounwind willreturn memory(argmem: readwrite) uwtable
define void @fstWriterFlushContext(ptr noundef captures(address_is_null) %0) local_unnamed_addr #11 {
  %.not = icmp eq ptr %0, null
  br i1 %.not, label %10, label %2

2:                                                ; preds = %1
  %3 = getelementptr inbounds nuw i8, ptr %0, i64 140
  %4 = load i32, ptr %3, align 4, !tbaa !42
  %5 = icmp ugt i32 %4, 1
  br i1 %5, label %6, label %10

6:                                                ; preds = %2
  %7 = getelementptr inbounds nuw i8, ptr %0, i64 233
  %8 = load i8, ptr %7, align 1
  %9 = or i8 %8, 32
  store i8 %9, ptr %7, align 1
  br label %10

10:                                               ; preds = %2, %6, %1
  ret void
}